---
triple:          'arm64-apple-darwin'
binary-path:     '/Users/zacharycasares/dev/cpp-projects/helloworld/main'
relocations:
  - { offsetInCU: 0x2FC5, offset: 0x2FC5, size: 0x8, addend: 0x0, symName: __ZNSt3__124__put_character_sequenceB7v160006IcNS_11char_traitsIcEEEERNS_13basic_ostreamIT_T0_EES7_PKS4_m, symObjAddr: 0x7D8, symBinAddr: 0x100002AC4, symSize: 0x1EC }
  - { offsetInCU: 0x4E14, offset: 0x4E14, size: 0x8, addend: 0x0, symName: __ZNSt3__1lsB7v160006IcNS_11char_traitsIcEENS_9allocatorIcEEEERNS_13basic_ostreamIT_T0_EES9_RKNS_12basic_stringIS6_S7_T1_EE, symObjAddr: 0x1BC, symBinAddr: 0x1000024A8, symSize: 0x4C }
  - { offsetInCU: 0x4E6C, offset: 0x4E6C, size: 0x8, addend: 0x0, symName: __ZNSt3__14endlB7v160006IcNS_11char_traitsIcEEEERNS_13basic_ostreamIT_T0_EES7_, symObjAddr: 0x234, symBinAddr: 0x100002520, symSize: 0x58 }
  - { offsetInCU: 0x4EAC, offset: 0x4EAC, size: 0x8, addend: 0x0, symName: __ZNSt3__1rsB7v160006IcNS_11char_traitsIcEENS_9allocatorIcEEEERNS_13basic_istreamIT_T0_EES9_RNS_12basic_stringIS6_S7_T1_EE, symObjAddr: 0x2B8, symBinAddr: 0x1000025A4, symSize: 0x30C }
  - { offsetInCU: 0x4F79, offset: 0x4F79, size: 0x8, addend: 0x0, symName: __ZNSt3__1lsB7v160006INS_11char_traitsIcEEEERNS_13basic_ostreamIcT_EES6_PKc, symObjAddr: 0x5C4, symBinAddr: 0x1000028B0, symSize: 0x48 }
  - { offsetInCU: 0x4FBF, offset: 0x4FBF, size: 0x8, addend: 0x0, symName: __ZNSt3__119__debug_db_insert_cB7v160006INS_12basic_stringIcNS_11char_traitsIcEENS_9allocatorIcEEEEEEvPT_, symObjAddr: 0x6DC, symBinAddr: 0x1000029C8, symSize: 0x10 }
  - { offsetInCU: 0x4FF0, offset: 0x4FF0, size: 0x8, addend: 0x0, symName: __ZNSt3__118__constexpr_strlenB7v160006EPKc, symObjAddr: 0x7A8, symBinAddr: 0x100002A94, symSize: 0x24 }
  - { offsetInCU: 0x501C, offset: 0x501C, size: 0x8, addend: 0x0, symName: __ZNSt3__116__pad_and_outputB7v160006IcNS_11char_traitsIcEEEENS_19ostreambuf_iteratorIT_T0_EES6_PKS4_S8_S8_RNS_8ios_baseES4_, symObjAddr: 0xA5C, symBinAddr: 0x100002D48, symSize: 0x240 }
  - { offsetInCU: 0x50EB, offset: 0x50EB, size: 0x8, addend: 0x0, symName: __ZNSt3__19use_facetB7v160006INS_5ctypeIcEEEERKT_RKNS_6localeE, symObjAddr: 0xFF0, symBinAddr: 0x1000032DC, symSize: 0x2C }
  - { offsetInCU: 0x54CB, offset: 0x54CB, size: 0x8, addend: 0x0, symName: __ZNSt3__112__to_addressB7v160006IKcEEPT_S3_, symObjAddr: 0x1088, symBinAddr: 0x100003374, symSize: 0x14 }
  - { offsetInCU: 0x5CBE, offset: 0x5CBE, size: 0x8, addend: 0x0, symName: __ZNSt3__125__debug_db_invalidate_allB7v160006INS_12basic_stringIcNS_11char_traitsIcEENS_9allocatorIcEEEEEEvPT_, symObjAddr: 0x1650, symBinAddr: 0x10000393C, symSize: 0x10 }
  - { offsetInCU: 0x843F, offset: 0x843F, size: 0x8, addend: 0x0, symName: _main, symObjAddr: 0x0, symBinAddr: 0x1000022EC, symSize: 0x188 }
  - { offsetInCU: 0x8498, offset: 0x8498, size: 0x8, addend: 0x0, symName: __ZNSt3__112basic_stringIcNS_11char_traitsIcEENS_9allocatorIcEEEC1B7v160006IDnEEPKc, symObjAddr: 0x188, symBinAddr: 0x100002474, symSize: 0x34 }
  - { offsetInCU: 0x84D4, offset: 0x84D4, size: 0x8, addend: 0x0, symName: __ZNSt3__113basic_ostreamIcNS_11char_traitsIcEEElsB7v160006EPFRS3_S4_E, symObjAddr: 0x208, symBinAddr: 0x1000024F4, symSize: 0x2C }
  - { offsetInCU: 0x8506, offset: 0x8506, size: 0x8, addend: 0x0, symName: __ZNSt3__112basic_stringIcNS_11char_traitsIcEENS_9allocatorIcEEEC1B7v160006Ev, symObjAddr: 0x28C, symBinAddr: 0x100002578, symSize: 0x2C }
  - { offsetInCU: 0x852E, offset: 0x852E, size: 0x8, addend: 0x0, symName: __ZNSt3__112basic_stringIcNS_11char_traitsIcEENS_9allocatorIcEEEC2B7v160006IDnEEPKc, symObjAddr: 0x60C, symBinAddr: 0x1000028F8, symSize: 0x60 }
  - { offsetInCU: 0x856F, offset: 0x856F, size: 0x8, addend: 0x0, symName: __ZNSt3__117__compressed_pairINS_12basic_stringIcNS_11char_traitsIcEENS_9allocatorIcEEE5__repES5_EC1B7v160006INS_18__default_init_tagESA_EEOT_OT0_, symObjAddr: 0x66C, symBinAddr: 0x100002958, symSize: 0x3C }
  - { offsetInCU: 0x85C6, offset: 0x85C6, size: 0x8, addend: 0x0, symName: __ZNSt3__111char_traitsIcE6lengthEPKc, symObjAddr: 0x6A8, symBinAddr: 0x100002994, symSize: 0x34 }
  - { offsetInCU: 0x85E7, offset: 0x85E7, size: 0x8, addend: 0x0, symName: __ZNSt3__117__compressed_pairINS_12basic_stringIcNS_11char_traitsIcEENS_9allocatorIcEEE5__repES5_EC2B7v160006INS_18__default_init_tagESA_EEOT_OT0_, symObjAddr: 0x6EC, symBinAddr: 0x1000029D8, symSize: 0x3C }
  - { offsetInCU: 0x863E, offset: 0x863E, size: 0x8, addend: 0x0, symName: __ZNSt3__122__compressed_pair_elemINS_12basic_stringIcNS_11char_traitsIcEENS_9allocatorIcEEE5__repELi0ELb0EEC2B7v160006ENS_18__default_init_tagE, symObjAddr: 0x728, symBinAddr: 0x100002A14, symSize: 0x14 }
  - { offsetInCU: 0x8671, offset: 0x8671, size: 0x8, addend: 0x0, symName: __ZNSt3__122__compressed_pair_elemINS_9allocatorIcEELi1ELb1EEC2B7v160006ENS_18__default_init_tagE, symObjAddr: 0x73C, symBinAddr: 0x100002A28, symSize: 0x2C }
  - { offsetInCU: 0x86A4, offset: 0x86A4, size: 0x8, addend: 0x0, symName: __ZNSt3__19allocatorIcEC2B7v160006Ev, symObjAddr: 0x768, symBinAddr: 0x100002A54, symSize: 0x2C }
  - { offsetInCU: 0x86CD, offset: 0x86CD, size: 0x8, addend: 0x0, symName: __ZNSt3__116__non_trivial_ifILb1ENS_9allocatorIcEEEC2B7v160006Ev, symObjAddr: 0x794, symBinAddr: 0x100002A80, symSize: 0x14 }
  - { offsetInCU: 0x86F5, offset: 0x86F5, size: 0x8, addend: 0x0, symName: __ZNKSt3__112basic_stringIcNS_11char_traitsIcEENS_9allocatorIcEEE4dataB7v160006Ev, symObjAddr: 0x9C4, symBinAddr: 0x100002CB0, symSize: 0x28 }
  - { offsetInCU: 0x8719, offset: 0x8719, size: 0x8, addend: 0x0, symName: __ZNKSt3__112basic_stringIcNS_11char_traitsIcEENS_9allocatorIcEEE4sizeB7v160006Ev, symObjAddr: 0x9EC, symBinAddr: 0x100002CD8, symSize: 0x54 }
  - { offsetInCU: 0x875C, offset: 0x875C, size: 0x8, addend: 0x0, symName: __ZNKSt3__113basic_ostreamIcNS_11char_traitsIcEEE6sentrycvbB7v160006Ev, symObjAddr: 0xA40, symBinAddr: 0x100002D2C, symSize: 0x1C }
  - { offsetInCU: 0x8780, offset: 0x8780, size: 0x8, addend: 0x0, symName: __ZNSt3__119ostreambuf_iteratorIcNS_11char_traitsIcEEEC1B7v160006ERNS_13basic_ostreamIcS2_EE, symObjAddr: 0xC9C, symBinAddr: 0x100002F88, symSize: 0x34 }
  - { offsetInCU: 0x87B7, offset: 0x87B7, size: 0x8, addend: 0x0, symName: __ZNKSt3__18ios_base5flagsB7v160006Ev, symObjAddr: 0xCD0, symBinAddr: 0x100002FBC, symSize: 0x18 }
  - { offsetInCU: 0x87DE, offset: 0x87DE, size: 0x8, addend: 0x0, symName: __ZNKSt3__19basic_iosIcNS_11char_traitsIcEEE4fillB7v160006Ev, symObjAddr: 0xCE8, symBinAddr: 0x100002FD4, symSize: 0x64 }
  - { offsetInCU: 0x8805, offset: 0x8805, size: 0x8, addend: 0x0, symName: __ZNKSt3__119ostreambuf_iteratorIcNS_11char_traitsIcEEE6failedB7v160006Ev, symObjAddr: 0xD4C, symBinAddr: 0x100003038, symSize: 0x24 }
  - { offsetInCU: 0x8829, offset: 0x8829, size: 0x8, addend: 0x0, symName: __ZNSt3__19basic_iosIcNS_11char_traitsIcEEE8setstateB7v160006Ej, symObjAddr: 0xD70, symBinAddr: 0x10000305C, symSize: 0x2C }
  - { offsetInCU: 0x885D, offset: 0x885D, size: 0x8, addend: 0x0, symName: __ZNKSt3__18ios_base5widthB7v160006Ev, symObjAddr: 0xD9C, symBinAddr: 0x100003088, symSize: 0x18 }
  - { offsetInCU: 0x8883, offset: 0x8883, size: 0x8, addend: 0x0, symName: __ZNSt3__115basic_streambufIcNS_11char_traitsIcEEE5sputnB7v160006EPKcl, symObjAddr: 0xDB4, symBinAddr: 0x1000030A0, symSize: 0x3C }
  - { offsetInCU: 0x88C3, offset: 0x88C3, size: 0x8, addend: 0x0, symName: __ZNSt3__112basic_stringIcNS_11char_traitsIcEENS_9allocatorIcEEEC1B7v160006Emc, symObjAddr: 0xDF0, symBinAddr: 0x1000030DC, symSize: 0x3C }
  - { offsetInCU: 0x890A, offset: 0x890A, size: 0x8, addend: 0x0, symName: __ZNSt3__18ios_base5widthB7v160006El, symObjAddr: 0xE2C, symBinAddr: 0x100003118, symSize: 0x2C }
  - { offsetInCU: 0x894E, offset: 0x894E, size: 0x8, addend: 0x0, symName: __ZNSt3__112basic_stringIcNS_11char_traitsIcEENS_9allocatorIcEEEC2B7v160006Emc, symObjAddr: 0xE58, symBinAddr: 0x100003144, symSize: 0x54 }
  - { offsetInCU: 0x8994, offset: 0x8994, size: 0x8, addend: 0x0, symName: __ZNSt3__119ostreambuf_iteratorIcNS_11char_traitsIcEEEC2B7v160006ERNS_13basic_ostreamIcS2_EE, symObjAddr: 0xEAC, symBinAddr: 0x100003198, symSize: 0x54 }
  - { offsetInCU: 0x89CB, offset: 0x89CB, size: 0x8, addend: 0x0, symName: __ZNKSt3__19basic_iosIcNS_11char_traitsIcEEE5rdbufB7v160006Ev, symObjAddr: 0xF00, symBinAddr: 0x1000031EC, symSize: 0x24 }
  - { offsetInCU: 0x89F2, offset: 0x89F2, size: 0x8, addend: 0x0, symName: __ZNKSt3__18ios_base5rdbufB7v160006Ev, symObjAddr: 0xF24, symBinAddr: 0x100003210, symSize: 0x18 }
  - { offsetInCU: 0x8A17, offset: 0x8A17, size: 0x8, addend: 0x0, symName: __ZNSt3__111char_traitsIcE11eq_int_typeEii, symObjAddr: 0xF3C, symBinAddr: 0x100003228, symSize: 0x28 }
  - { offsetInCU: 0x8A48, offset: 0x8A48, size: 0x8, addend: 0x0, symName: __ZNSt3__111char_traitsIcE3eofEv, symObjAddr: 0xF64, symBinAddr: 0x100003250, symSize: 0x8 }
  - { offsetInCU: 0x8A5C, offset: 0x8A5C, size: 0x8, addend: 0x0, symName: __ZNKSt3__19basic_iosIcNS_11char_traitsIcEEE5widenB7v160006Ec, symObjAddr: 0xF6C, symBinAddr: 0x100003258, symSize: 0x84 }
  - { offsetInCU: 0x8ABE, offset: 0x8ABE, size: 0x8, addend: 0x0, symName: __ZNKSt3__15ctypeIcE5widenB7v160006Ec, symObjAddr: 0x101C, symBinAddr: 0x100003308, symSize: 0x38 }
  - { offsetInCU: 0x8AF2, offset: 0x8AF2, size: 0x8, addend: 0x0, symName: __ZNSt3__18ios_base8setstateB7v160006Ej, symObjAddr: 0x1054, symBinAddr: 0x100003340, symSize: 0x34 }
  - { offsetInCU: 0x8B27, offset: 0x8B27, size: 0x8, addend: 0x0, symName: __ZNKSt3__112basic_stringIcNS_11char_traitsIcEENS_9allocatorIcEEE13__get_pointerB7v160006Ev, symObjAddr: 0x109C, symBinAddr: 0x100003388, symSize: 0x54 }
  - { offsetInCU: 0x8B4B, offset: 0x8B4B, size: 0x8, addend: 0x0, symName: __ZNKSt3__112basic_stringIcNS_11char_traitsIcEENS_9allocatorIcEEE9__is_longB7v160006Ev, symObjAddr: 0x10F0, symBinAddr: 0x1000033DC, symSize: 0x38 }
  - { offsetInCU: 0x8B6F, offset: 0x8B6F, size: 0x8, addend: 0x0, symName: __ZNKSt3__112basic_stringIcNS_11char_traitsIcEENS_9allocatorIcEEE18__get_long_pointerB7v160006Ev, symObjAddr: 0x1128, symBinAddr: 0x100003414, symSize: 0x28 }
  - { offsetInCU: 0x8B93, offset: 0x8B93, size: 0x8, addend: 0x0, symName: __ZNKSt3__112basic_stringIcNS_11char_traitsIcEENS_9allocatorIcEEE19__get_short_pointerB7v160006Ev, symObjAddr: 0x1150, symBinAddr: 0x10000343C, symSize: 0x28 }
  - { offsetInCU: 0x8BB7, offset: 0x8BB7, size: 0x8, addend: 0x0, symName: __ZNKSt3__117__compressed_pairINS_12basic_stringIcNS_11char_traitsIcEENS_9allocatorIcEEE5__repES5_E5firstB7v160006Ev, symObjAddr: 0x1178, symBinAddr: 0x100003464, symSize: 0x24 }
  - { offsetInCU: 0x8BDC, offset: 0x8BDC, size: 0x8, addend: 0x0, symName: __ZNKSt3__122__compressed_pair_elemINS_12basic_stringIcNS_11char_traitsIcEENS_9allocatorIcEEE5__repELi0ELb0EE5__getB7v160006Ev, symObjAddr: 0x119C, symBinAddr: 0x100003488, symSize: 0x14 }
  - { offsetInCU: 0x8C01, offset: 0x8C01, size: 0x8, addend: 0x0, symName: __ZNSt3__114pointer_traitsIPKcE10pointer_toB7v160006ERS1_, symObjAddr: 0x11B0, symBinAddr: 0x10000349C, symSize: 0x14 }
  - { offsetInCU: 0x8C23, offset: 0x8C23, size: 0x8, addend: 0x0, symName: __ZNKSt3__112basic_stringIcNS_11char_traitsIcEENS_9allocatorIcEEE15__get_long_sizeB7v160006Ev, symObjAddr: 0x11C4, symBinAddr: 0x1000034B0, symSize: 0x28 }
  - { offsetInCU: 0x8C47, offset: 0x8C47, size: 0x8, addend: 0x0, symName: __ZNKSt3__112basic_stringIcNS_11char_traitsIcEENS_9allocatorIcEEE16__get_short_sizeB7v160006Ev, symObjAddr: 0x11EC, symBinAddr: 0x1000034D8, symSize: 0x34 }
  - { offsetInCU: 0x8C6B, offset: 0x8C6B, size: 0x8, addend: 0x0, symName: __ZNSt3__112basic_stringIcNS_11char_traitsIcEENS_9allocatorIcEEEC2B7v160006Ev, symObjAddr: 0x1220, symBinAddr: 0x10000350C, symSize: 0x50 }
  - { offsetInCU: 0x8C93, offset: 0x8C93, size: 0x8, addend: 0x0, symName: __ZNSt3__112basic_stringIcNS_11char_traitsIcEENS_9allocatorIcEEE14__default_initB7v160006Ev, symObjAddr: 0x1270, symBinAddr: 0x10000355C, symSize: 0x40 }
  - { offsetInCU: 0x8CB7, offset: 0x8CB7, size: 0x8, addend: 0x0, symName: __ZNSt3__117__compressed_pairINS_12basic_stringIcNS_11char_traitsIcEENS_9allocatorIcEEE5__repES5_E5firstB7v160006Ev, symObjAddr: 0x12B0, symBinAddr: 0x10000359C, symSize: 0x24 }
  - { offsetInCU: 0x8CDC, offset: 0x8CDC, size: 0x8, addend: 0x0, symName: __ZNSt3__122__compressed_pair_elemINS_12basic_stringIcNS_11char_traitsIcEENS_9allocatorIcEEE5__repELi0ELb0EE5__getB7v160006Ev, symObjAddr: 0x12D4, symBinAddr: 0x1000035C0, symSize: 0x14 }
  - { offsetInCU: 0x8D93, offset: 0x8D93, size: 0x8, addend: 0x0, symName: __ZNKSt3__113basic_istreamIcNS_11char_traitsIcEEE6sentrycvbB7v160006Ev, symObjAddr: 0x12E8, symBinAddr: 0x1000035D4, symSize: 0x1C }
  - { offsetInCU: 0x8DB8, offset: 0x8DB8, size: 0x8, addend: 0x0, symName: __ZNSt3__112basic_stringIcNS_11char_traitsIcEENS_9allocatorIcEEE5clearB7v160006Ev, symObjAddr: 0x1304, symBinAddr: 0x1000035F0, symSize: 0x88 }
  - { offsetInCU: 0x8DDE, offset: 0x8DDE, size: 0x8, addend: 0x0, symName: __ZNKSt3__112basic_stringIcNS_11char_traitsIcEENS_9allocatorIcEEE8max_sizeB7v160006Ev, symObjAddr: 0x138C, symBinAddr: 0x100003678, symSize: 0xAC }
  - { offsetInCU: 0x8E30, offset: 0x8E30, size: 0x8, addend: 0x0, symName: __ZNSt3__114numeric_limitsIlE3maxB7v160006Ev, symObjAddr: 0x1438, symBinAddr: 0x100003724, symSize: 0x14 }
  - { offsetInCU: 0x8E43, offset: 0x8E43, size: 0x8, addend: 0x0, symName: __ZNSt3__115basic_streambufIcNS_11char_traitsIcEEE5sgetcB7v160006Ev, symObjAddr: 0x144C, symBinAddr: 0x100003738, symSize: 0x70 }
  - { offsetInCU: 0x8E68, offset: 0x8E68, size: 0x8, addend: 0x0, symName: __ZNSt3__111char_traitsIcE12to_char_typeEi, symObjAddr: 0x14BC, symBinAddr: 0x1000037A8, symSize: 0x18 }
  - { offsetInCU: 0x8E8A, offset: 0x8E8A, size: 0x8, addend: 0x0, symName: __ZNKSt3__15ctypeIcE2isB7v160006Ejc, symObjAddr: 0x14D4, symBinAddr: 0x1000037C0, symSize: 0x7C }
  - { offsetInCU: 0x8ECC, offset: 0x8ECC, size: 0x8, addend: 0x0, symName: __ZNSt3__115basic_streambufIcNS_11char_traitsIcEEE6sbumpcB7v160006Ev, symObjAddr: 0x1550, symBinAddr: 0x10000383C, symSize: 0x78 }
  - { offsetInCU: 0x8EF1, offset: 0x8EF1, size: 0x8, addend: 0x0, symName: __ZNSt3__18ios_base18__setstate_nothrowB7v160006Ej, symObjAddr: 0x15C8, symBinAddr: 0x1000038B4, symSize: 0x64 }
  - { offsetInCU: 0x8F24, offset: 0x8F24, size: 0x8, addend: 0x0, symName: __ZNKSt3__19basic_iosIcNS_11char_traitsIcEEE10exceptionsB7v160006Ev, symObjAddr: 0x162C, symBinAddr: 0x100003918, symSize: 0x24 }
  - { offsetInCU: 0x8F49, offset: 0x8F49, size: 0x8, addend: 0x0, symName: __ZNSt3__111char_traitsIcE6assignERcRKc, symObjAddr: 0x1660, symBinAddr: 0x10000394C, symSize: 0x24 }
  - { offsetInCU: 0x8F79, offset: 0x8F79, size: 0x8, addend: 0x0, symName: __ZNSt3__112basic_stringIcNS_11char_traitsIcEENS_9allocatorIcEEE18__get_long_pointerB7v160006Ev, symObjAddr: 0x1684, symBinAddr: 0x100003970, symSize: 0x28 }
  - { offsetInCU: 0x8F9D, offset: 0x8F9D, size: 0x8, addend: 0x0, symName: __ZNSt3__112basic_stringIcNS_11char_traitsIcEENS_9allocatorIcEEE15__set_long_sizeB7v160006Em, symObjAddr: 0x16AC, symBinAddr: 0x100003998, symSize: 0x38 }
  - { offsetInCU: 0x8FD0, offset: 0x8FD0, size: 0x8, addend: 0x0, symName: __ZNSt3__112basic_stringIcNS_11char_traitsIcEENS_9allocatorIcEEE19__get_short_pointerB7v160006Ev, symObjAddr: 0x16E4, symBinAddr: 0x1000039D0, symSize: 0x28 }
  - { offsetInCU: 0x8FF4, offset: 0x8FF4, size: 0x8, addend: 0x0, symName: __ZNSt3__112basic_stringIcNS_11char_traitsIcEENS_9allocatorIcEEE16__set_short_sizeB7v160006Em, symObjAddr: 0x170C, symBinAddr: 0x1000039F8, symSize: 0x78 }
  - { offsetInCU: 0x9028, offset: 0x9028, size: 0x8, addend: 0x0, symName: __ZNSt3__114pointer_traitsIPcE10pointer_toB7v160006ERc, symObjAddr: 0x1784, symBinAddr: 0x100003A70, symSize: 0x14 }
  - { offsetInCU: 0x9055, offset: 0x9055, size: 0x8, addend: 0x0, symName: __ZNSt3__116allocator_traitsINS_9allocatorIcEEE8max_sizeB7v160006IS2_vEEmRKS2_, symObjAddr: 0x1798, symBinAddr: 0x100003A84, symSize: 0x24 }
  - { offsetInCU: 0x9081, offset: 0x9081, size: 0x8, addend: 0x0, symName: __ZNKSt3__112basic_stringIcNS_11char_traitsIcEENS_9allocatorIcEEE7__allocB7v160006Ev, symObjAddr: 0x17BC, symBinAddr: 0x100003AA8, symSize: 0x24 }
  - { offsetInCU: 0x90A6, offset: 0x90A6, size: 0x8, addend: 0x0, symName: __ZNSt3__114numeric_limitsImE3maxB7v160006Ev, symObjAddr: 0x17E0, symBinAddr: 0x100003ACC, symSize: 0x14 }
  - { offsetInCU: 0x90BA, offset: 0x90BA, size: 0x8, addend: 0x0, symName: __ZNKSt3__19allocatorIcE8max_sizeB7v160006Ev, symObjAddr: 0x17F4, symBinAddr: 0x100003AE0, symSize: 0x14 }
  - { offsetInCU: 0x90DE, offset: 0x90DE, size: 0x8, addend: 0x0, symName: __ZNKSt3__117__compressed_pairINS_12basic_stringIcNS_11char_traitsIcEENS_9allocatorIcEEE5__repES5_E6secondB7v160006Ev, symObjAddr: 0x1808, symBinAddr: 0x100003AF4, symSize: 0x24 }
  - { offsetInCU: 0x9103, offset: 0x9103, size: 0x8, addend: 0x0, symName: __ZNKSt3__122__compressed_pair_elemINS_9allocatorIcEELi1ELb1EE5__getB7v160006Ev, symObjAddr: 0x182C, symBinAddr: 0x100003B18, symSize: 0x14 }
  - { offsetInCU: 0x9128, offset: 0x9128, size: 0x8, addend: 0x0, symName: __ZNSt3__123__libcpp_numeric_limitsImLb1EE3maxB7v160006Ev, symObjAddr: 0x1840, symBinAddr: 0x100003B2C, symSize: 0x8 }
  - { offsetInCU: 0x913C, offset: 0x913C, size: 0x8, addend: 0x0, symName: __ZNSt3__123__libcpp_numeric_limitsIlLb1EE3maxB7v160006Ev, symObjAddr: 0x1848, symBinAddr: 0x100003B34, symSize: 0x8 }
  - { offsetInCU: 0x9150, offset: 0x9150, size: 0x8, addend: 0x0, symName: __ZNSt3__111char_traitsIcE11to_int_typeEc, symObjAddr: 0x1850, symBinAddr: 0x100003B3C, symSize: 0x14 }
  - { offsetInCU: 0x9172, offset: 0x9172, size: 0x8, addend: 0x0, symName: __Z7isasciii, symObjAddr: 0x1864, symBinAddr: 0x100003B50, symSize: 0x24 }
  - { offsetInCU: 0x919F, offset: 0x919F, size: 0x8, addend: 0x0, symName: __ZNKSt3__18ios_base10exceptionsB7v160006Ev, symObjAddr: 0x1888, symBinAddr: 0x100003B74, symSize: 0x18 }
...
